target datalayout = "e-m:e-p270:32:32-p271:32:32-p272:64:64-i64:64-i128:128-f80:128-n8:16:32:64-S128"
target triple = "x86_64-pc-linux-gnu"

%struct.AF_StyleClassRec_ = type { i32, i32, i32, i32, i32 }
%struct.FT_FaceRec_ = type { i64, i64, i64, i64, i64, ptr, ptr, i32, ptr, i32, ptr, %struct.FT_Generic_, %struct.FT_BBox_, i16, i16, i16, i16, i16, i16, i16, i16, ptr, ptr, ptr, ptr, ptr, ptr, %struct.FT_ListRec_, %struct.FT_Generic_, ptr, ptr }
%struct.FT_BBox_ = type { i64, i64, i64, i64 }
%struct.FT_ListRec_ = type { ptr, ptr }
%struct.FT_Generic_ = type { ptr, ptr }
%struct.AF_FaceGlobalsRec_ = type { ptr, i32, ptr, ptr, ptr, i32, [87 x ptr], i16, i64, i64, i64, i64, i64, ptr }
%struct.AF_ModuleRec_ = type { %struct.FT_ModuleRec_, i32, i32, i8, [8 x i32] }
%struct.FT_ModuleRec_ = type { ptr, ptr, ptr }
%struct.FT_Prop_IncreaseXHeight_ = type { ptr, i32 }
%struct.FT_Prop_GlyphToScriptMap_ = type { ptr, ptr }

@.str.181 = private unnamed_addr constant [16 x i8] c"fallback-script\00", align 1
@.str.182 = private unnamed_addr constant [15 x i8] c"default-script\00", align 1
@.str.183 = private unnamed_addr constant [18 x i8] c"increase-x-height\00", align 1
@.str.184 = private unnamed_addr constant [21 x i8] c"darkening-parameters\00", align 1
@.str.185 = private unnamed_addr constant [18 x i8] c"no-stem-darkening\00", align 1
@.str.186 = private unnamed_addr constant [20 x i8] c"glyph-to-script-map\00", align 1

; Function Attrs: nounwind uwtable
define internal i32 @af_property_get_face_globals(ptr noundef %0, ptr noundef %1, ptr noundef %2) #0 {
  %4 = alloca i32, align 4
  %5 = alloca ptr, align 8
  %6 = alloca ptr, align 8
  %7 = alloca ptr, align 8
  %8 = alloca i32, align 4
  %9 = alloca ptr, align 8
  %10 = alloca i32, align 4
  store ptr %0, ptr %5, align 8, !tbaa !8
  store ptr %1, ptr %6, align 8, !tbaa !539
  store ptr %2, ptr %7, align 8, !tbaa !102
  call void @llvm.lifetime.start.p0(i64 4, ptr %8) #10
  store i32 0, ptr %8, align 4, !tbaa !43
  call void @llvm.lifetime.start.p0(i64 8, ptr %9) #10
  %11 = load ptr, ptr %5, align 8, !tbaa !8
  %12 = icmp ne ptr %11, null
  br i1 %12, label %14, label %13

13:                                               ; preds = %3
  store i32 35, ptr %4, align 4
  store i32 1, ptr %10, align 4
  br label %44

14:                                               ; preds = %3
  %15 = load ptr, ptr %5, align 8, !tbaa !8
  %16 = getelementptr inbounds nuw %struct.FT_FaceRec_, ptr %15, i32 0, i32 28
  %17 = getelementptr inbounds nuw %struct.FT_Generic_, ptr %16, i32 0, i32 0
  %18 = load ptr, ptr %17, align 8, !tbaa !519
  store ptr %18, ptr %9, align 8, !tbaa !124
  %19 = load ptr, ptr %9, align 8, !tbaa !124
  %20 = icmp ne ptr %19, null
  br i1 %20, label %36, label %21

21:                                               ; preds = %14
  %22 = load ptr, ptr %5, align 8, !tbaa !8
  %23 = load ptr, ptr %7, align 8, !tbaa !102
  %24 = call i32 @af_face_globals_new(ptr noundef %22, ptr noundef %9, ptr noundef %23)
  store i32 %24, ptr %8, align 4, !tbaa !43
  %25 = load i32, ptr %8, align 4, !tbaa !43
  %26 = icmp ne i32 %25, 0
  br i1 %26, label %35, label %27

27:                                               ; preds = %21
  %28 = load ptr, ptr %9, align 8, !tbaa !124
  %29 = load ptr, ptr %5, align 8, !tbaa !8
  %30 = getelementptr inbounds nuw %struct.FT_FaceRec_, ptr %29, i32 0, i32 28
  %31 = getelementptr inbounds nuw %struct.FT_Generic_, ptr %30, i32 0, i32 0
  store ptr %28, ptr %31, align 8, !tbaa !519
  %32 = load ptr, ptr %5, align 8, !tbaa !8
  %33 = getelementptr inbounds nuw %struct.FT_FaceRec_, ptr %32, i32 0, i32 28
  %34 = getelementptr inbounds nuw %struct.FT_Generic_, ptr %33, i32 0, i32 1
  store ptr @af_face_globals_free, ptr %34, align 8, !tbaa !520
  br label %35

35:                                               ; preds = %27, %21
  br label %36

36:                                               ; preds = %35, %14
  %37 = load i32, ptr %8, align 4, !tbaa !43
  %38 = icmp ne i32 %37, 0
  br i1 %38, label %42, label %39

39:                                               ; preds = %36
  %40 = load ptr, ptr %9, align 8, !tbaa !124
  %41 = load ptr, ptr %6, align 8, !tbaa !539
  store ptr %40, ptr %41, align 8, !tbaa !124
  br label %42

42:                                               ; preds = %39, %36
  %43 = load i32, ptr %8, align 4, !tbaa !43
  store i32 %43, ptr %4, align 4
  store i32 1, ptr %10, align 4
  br label %44

44:                                               ; preds = %42, %13
  call void @llvm.lifetime.end.p0(i64 8, ptr %9) #10
  call void @llvm.lifetime.end.p0(i64 4, ptr %8) #10
  %45 = load i32, ptr %4, align 4
  ret i32 %45
}

; Function Attrs: nounwind uwtable
define internal i32 @af_property_get(ptr noundef %0, ptr noundef %1, ptr noundef %2) #0 {
  %4 = alloca i32, align 4
  %5 = alloca ptr, align 8
  %6 = alloca ptr, align 8
  %7 = alloca ptr, align 8
  %8 = alloca i32, align 4
  %9 = alloca ptr, align 8
  %10 = alloca ptr, align 8
  %11 = alloca ptr, align 8
  %12 = alloca i32, align 4
  %13 = alloca ptr, align 8
  %14 = alloca ptr, align 8
  %15 = alloca ptr, align 8
  %16 = alloca ptr, align 8
  %17 = alloca ptr, align 8
  %18 = alloca ptr, align 8
  %19 = alloca ptr, align 8
  %20 = alloca i8, align 1
  %21 = alloca ptr, align 8
  store ptr %0, ptr %5, align 8, !tbaa !118
  store ptr %1, ptr %6, align 8, !tbaa !123
  store ptr %2, ptr %7, align 8, !tbaa !153
  call void @llvm.lifetime.start.p0(i64 4, ptr %8) #10
  store i32 0, ptr %8, align 4, !tbaa !43
  call void @llvm.lifetime.start.p0(i64 8, ptr %9) #10
  %22 = load ptr, ptr %5, align 8, !tbaa !118
  store ptr %22, ptr %9, align 8, !tbaa !102
  %23 = load ptr, ptr %6, align 8, !tbaa !123
  %24 = call i32 @strcmp(ptr noundef %23, ptr noundef @.str.186) #12
  %25 = icmp ne i32 %24, 0
  br i1 %25, label %43, label %26

26:                                               ; preds = %3
  call void @llvm.lifetime.start.p0(i64 8, ptr %10) #10
  %27 = load ptr, ptr %7, align 8, !tbaa !153
  store ptr %27, ptr %10, align 8, !tbaa !572
  call void @llvm.lifetime.start.p0(i64 8, ptr %11) #10
  %28 = load ptr, ptr %10, align 8, !tbaa !572
  %29 = getelementptr inbounds nuw %struct.FT_Prop_GlyphToScriptMap_, ptr %28, i32 0, i32 0
  %30 = load ptr, ptr %29, align 8, !tbaa !574
  %31 = load ptr, ptr %9, align 8, !tbaa !102
  %32 = call i32 @af_property_get_face_globals(ptr noundef %30, ptr noundef %11, ptr noundef %31)
  store i32 %32, ptr %8, align 4, !tbaa !43
  %33 = load i32, ptr %8, align 4, !tbaa !43
  %34 = icmp ne i32 %33, 0
  br i1 %34, label %41, label %35

35:                                               ; preds = %26
  %36 = load ptr, ptr %11, align 8, !tbaa !124
  %37 = getelementptr inbounds nuw %struct.AF_FaceGlobalsRec_, ptr %36, i32 0, i32 2
  %38 = load ptr, ptr %37, align 8, !tbaa !90
  %39 = load ptr, ptr %10, align 8, !tbaa !572
  %40 = getelementptr inbounds nuw %struct.FT_Prop_GlyphToScriptMap_, ptr %39, i32 0, i32 1
  store ptr %38, ptr %40, align 8, !tbaa !576
  br label %41

41:                                               ; preds = %35, %26
  %42 = load i32, ptr %8, align 4, !tbaa !43
  store i32 %42, ptr %4, align 4
  store i32 1, ptr %12, align 4
  call void @llvm.lifetime.end.p0(i64 8, ptr %11) #10
  call void @llvm.lifetime.end.p0(i64 8, ptr %10) #10
  br label %163

43:                                               ; preds = %3
  %44 = load ptr, ptr %6, align 8, !tbaa !123
  %45 = call i32 @strcmp(ptr noundef %44, ptr noundef @.str.181) #12
  %46 = icmp ne i32 %45, 0
  br i1 %46, label %60, label %47

47:                                               ; preds = %43
  call void @llvm.lifetime.start.p0(i64 8, ptr %13) #10
  %48 = load ptr, ptr %7, align 8, !tbaa !153
  store ptr %48, ptr %13, align 8, !tbaa !153
  call void @llvm.lifetime.start.p0(i64 8, ptr %14) #10
  %49 = load ptr, ptr %9, align 8, !tbaa !102
  %50 = getelementptr inbounds nuw %struct.AF_ModuleRec_, ptr %49, i32 0, i32 1
  %51 = load i32, ptr %50, align 8, !tbaa !120
  %52 = zext i32 %51 to i64
  %53 = getelementptr inbounds nuw [88 x ptr], ptr @af_style_classes, i64 0, i64 %52
  %54 = load ptr, ptr %53, align 8, !tbaa !125
  store ptr %54, ptr %14, align 8, !tbaa !125
  %55 = load ptr, ptr %14, align 8, !tbaa !125
  %56 = getelementptr inbounds nuw %struct.AF_StyleClassRec_, ptr %55, i32 0, i32 2
  %57 = load i32, ptr %56, align 4, !tbaa !137
  %58 = load ptr, ptr %13, align 8, !tbaa !153
  store i32 %57, ptr %58, align 4, !tbaa !43
  %59 = load i32, ptr %8, align 4, !tbaa !43
  store i32 %59, ptr %4, align 4
  store i32 1, ptr %12, align 4
  call void @llvm.lifetime.end.p0(i64 8, ptr %14) #10
  call void @llvm.lifetime.end.p0(i64 8, ptr %13) #10
  br label %163

60:                                               ; preds = %43
  %61 = load ptr, ptr %6, align 8, !tbaa !123
  %62 = call i32 @strcmp(ptr noundef %61, ptr noundef @.str.182) #12
  %63 = icmp ne i32 %62, 0
  br i1 %63, label %71, label %64

64:                                               ; preds = %60
  call void @llvm.lifetime.start.p0(i64 8, ptr %15) #10
  %65 = load ptr, ptr %7, align 8, !tbaa !153
  store ptr %65, ptr %15, align 8, !tbaa !153
  %66 = load ptr, ptr %9, align 8, !tbaa !102
  %67 = getelementptr inbounds nuw %struct.AF_ModuleRec_, ptr %66, i32 0, i32 2
  %68 = load i32, ptr %67, align 4, !tbaa !121
  %69 = load ptr, ptr %15, align 8, !tbaa !153
  store i32 %68, ptr %69, align 4, !tbaa !43
  %70 = load i32, ptr %8, align 4, !tbaa !43
  store i32 %70, ptr %4, align 4
  store i32 1, ptr %12, align 4
  call void @llvm.lifetime.end.p0(i64 8, ptr %15) #10
  br label %163

71:                                               ; preds = %60
  %72 = load ptr, ptr %6, align 8, !tbaa !123
  %73 = call i32 @strcmp(ptr noundef %72, ptr noundef @.str.183) #12
  %74 = icmp ne i32 %73, 0
  br i1 %74, label %92, label %75

75:                                               ; preds = %71
  call void @llvm.lifetime.start.p0(i64 8, ptr %16) #10
  %76 = load ptr, ptr %7, align 8, !tbaa !153
  store ptr %76, ptr %16, align 8, !tbaa !566
  call void @llvm.lifetime.start.p0(i64 8, ptr %17) #10
  %77 = load ptr, ptr %16, align 8, !tbaa !566
  %78 = getelementptr inbounds nuw %struct.FT_Prop_IncreaseXHeight_, ptr %77, i32 0, i32 0
  %79 = load ptr, ptr %78, align 8, !tbaa !568
  %80 = load ptr, ptr %9, align 8, !tbaa !102
  %81 = call i32 @af_property_get_face_globals(ptr noundef %79, ptr noundef %17, ptr noundef %80)
  store i32 %81, ptr %8, align 4, !tbaa !43
  %82 = load i32, ptr %8, align 4, !tbaa !43
  %83 = icmp ne i32 %82, 0
  br i1 %83, label %90, label %84

84:                                               ; preds = %75
  %85 = load ptr, ptr %17, align 8, !tbaa !124
  %86 = getelementptr inbounds nuw %struct.AF_FaceGlobalsRec_, ptr %85, i32 0, i32 5
  %87 = load i32, ptr %86, align 8, !tbaa !426
  %88 = load ptr, ptr %16, align 8, !tbaa !566
  %89 = getelementptr inbounds nuw %struct.FT_Prop_IncreaseXHeight_, ptr %88, i32 0, i32 1
  store i32 %87, ptr %89, align 8, !tbaa !570
  br label %90

90:                                               ; preds = %84, %75
  %91 = load i32, ptr %8, align 4, !tbaa !43
  store i32 %91, ptr %4, align 4
  store i32 1, ptr %12, align 4
  call void @llvm.lifetime.end.p0(i64 8, ptr %17) #10
  call void @llvm.lifetime.end.p0(i64 8, ptr %16) #10
  br label %163

92:                                               ; preds = %71
  %93 = load ptr, ptr %6, align 8, !tbaa !123
  %94 = call i32 @strcmp(ptr noundef %93, ptr noundef @.str.184) #12
  %95 = icmp ne i32 %94, 0
  br i1 %95, label %142, label %96

96:                                               ; preds = %92
  call void @llvm.lifetime.start.p0(i64 8, ptr %18) #10
  %97 = load ptr, ptr %9, align 8, !tbaa !102
  %98 = getelementptr inbounds nuw %struct.AF_ModuleRec_, ptr %97, i32 0, i32 4
  %99 = getelementptr inbounds [8 x i32], ptr %98, i64 0, i64 0
  store ptr %99, ptr %18, align 8, !tbaa !135
  call void @llvm.lifetime.start.p0(i64 8, ptr %19) #10
  %100 = load ptr, ptr %7, align 8, !tbaa !153
  store ptr %100, ptr %19, align 8, !tbaa !135
  %101 = load ptr, ptr %18, align 8, !tbaa !135
  %102 = getelementptr inbounds i32, ptr %101, i64 0
  %103 = load i32, ptr %102, align 4, !tbaa !43
  %104 = load ptr, ptr %19, align 8, !tbaa !135
  %105 = getelementptr inbounds i32, ptr %104, i64 0
  store i32 %103, ptr %105, align 4, !tbaa !43
  %106 = load ptr, ptr %18, align 8, !tbaa !135
  %107 = getelementptr inbounds i32, ptr %106, i64 1
  %108 = load i32, ptr %107, align 4, !tbaa !43
  %109 = load ptr, ptr %19, align 8, !tbaa !135
  %110 = getelementptr inbounds i32, ptr %109, i64 1
  store i32 %108, ptr %110, align 4, !tbaa !43
  %111 = load ptr, ptr %18, align 8, !tbaa !135
  %112 = getelementptr inbounds i32, ptr %111, i64 2
  %113 = load i32, ptr %112, align 4, !tbaa !43
  %114 = load ptr, ptr %19, align 8, !tbaa !135
  %115 = getelementptr inbounds i32, ptr %114, i64 2
  store i32 %113, ptr %115, align 4, !tbaa !43
  %116 = load ptr, ptr %18, align 8, !tbaa !135
  %117 = getelementptr inbounds i32, ptr %116, i64 3
  %118 = load i32, ptr %117, align 4, !tbaa !43
  %119 = load ptr, ptr %19, align 8, !tbaa !135
  %120 = getelementptr inbounds i32, ptr %119, i64 3
  store i32 %118, ptr %120, align 4, !tbaa !43
  %121 = load ptr, ptr %18, align 8, !tbaa !135
  %122 = getelementptr inbounds i32, ptr %121, i64 4
  %123 = load i32, ptr %122, align 4, !tbaa !43
  %124 = load ptr, ptr %19, align 8, !tbaa !135
  %125 = getelementptr inbounds i32, ptr %124, i64 4
  store i32 %123, ptr %125, align 4, !tbaa !43
  %126 = load ptr, ptr %18, align 8, !tbaa !135
  %127 = getelementptr inbounds i32, ptr %126, i64 5
  %128 = load i32, ptr %127, align 4, !tbaa !43
  %129 = load ptr, ptr %19, align 8, !tbaa !135
  %130 = getelementptr inbounds i32, ptr %129, i64 5
  store i32 %128, ptr %130, align 4, !tbaa !43
  %131 = load ptr, ptr %18, align 8, !tbaa !135
  %132 = getelementptr inbounds i32, ptr %131, i64 6
  %133 = load i32, ptr %132, align 4, !tbaa !43
  %134 = load ptr, ptr %19, align 8, !tbaa !135
  %135 = getelementptr inbounds i32, ptr %134, i64 6
  store i32 %133, ptr %135, align 4, !tbaa !43
  %136 = load ptr, ptr %18, align 8, !tbaa !135
  %137 = getelementptr inbounds i32, ptr %136, i64 7
  %138 = load i32, ptr %137, align 4, !tbaa !43
  %139 = load ptr, ptr %19, align 8, !tbaa !135
  %140 = getelementptr inbounds i32, ptr %139, i64 7
  store i32 %138, ptr %140, align 4, !tbaa !43
  %141 = load i32, ptr %8, align 4, !tbaa !43
  store i32 %141, ptr %4, align 4
  store i32 1, ptr %12, align 4
  call void @llvm.lifetime.end.p0(i64 8, ptr %19) #10
  call void @llvm.lifetime.end.p0(i64 8, ptr %18) #10
  br label %163

142:                                              ; preds = %92
  %143 = load ptr, ptr %6, align 8, !tbaa !123
  %144 = call i32 @strcmp(ptr noundef %143, ptr noundef @.str.185) #12
  %145 = icmp ne i32 %144, 0
  br i1 %145, label %154, label %146

146:                                              ; preds = %142
  call void @llvm.lifetime.start.p0(i64 1, ptr %20) #10
  %147 = load ptr, ptr %9, align 8, !tbaa !102
  %148 = getelementptr inbounds nuw %struct.AF_ModuleRec_, ptr %147, i32 0, i32 3
  %149 = load i8, ptr %148, align 8, !tbaa !122
  store i8 %149, ptr %20, align 1, !tbaa !127
  call void @llvm.lifetime.start.p0(i64 8, ptr %21) #10
  %150 = load ptr, ptr %7, align 8, !tbaa !153
  store ptr %150, ptr %21, align 8, !tbaa !123
  %151 = load i8, ptr %20, align 1, !tbaa !127
  %152 = load ptr, ptr %21, align 8, !tbaa !123
  store i8 %151, ptr %152, align 1, !tbaa !127
  %153 = load i32, ptr %8, align 4, !tbaa !43
  store i32 %153, ptr %4, align 4
  store i32 1, ptr %12, align 4
  call void @llvm.lifetime.end.p0(i64 8, ptr %21) #10
  call void @llvm.lifetime.end.p0(i64 1, ptr %20) #10
  br label %163

154:                                              ; preds = %142
  br label %155

155:                                              ; preds = %154
  br label %156

156:                                              ; preds = %155
  br label %157

157:                                              ; preds = %156
  br label %158

158:                                              ; preds = %157
  br label %159

159:                                              ; preds = %158
  br label %160

160:                                              ; preds = %159
  br label %161

161:                                              ; preds = %160
  br label %162

162:                                              ; preds = %161
  store i32 12, ptr %4, align 4
  store i32 1, ptr %12, align 4
  br label %163

163:                                              ; preds = %162, %146, %96, %90, %64, %47, %41
  call void @llvm.lifetime.end.p0(i64 8, ptr %9) #10
  call void @llvm.lifetime.end.p0(i64 4, ptr %8) #10
  %164 = load i32, ptr %4, align 4
  ret i32 %164
}