; Function Attrs: nounwind uwtable
define internal i32 @af_property_get(ptr noundef %0, ptr noundef readonly captures(none) %1, ptr noundef captures(none) %2) #0 {
  %4 = alloca ptr, align 8
  %5 = alloca ptr, align 8
  %6 = tail call i32 @strcmp(ptr noundef nonnull dereferenceable(1) %1, ptr noundef nonnull dereferenceable(20) @.str.186) #22
  %.not = icmp eq i32 %6, 0
  br i1 %.not, label %7, label %21

7:                                                ; preds = %3
  %8 = load ptr, ptr %2, align 8, !tbaa !499
  call void @llvm.lifetime.start.p0(i64 8, ptr nonnull %5) #20
  %.not.i = icmp eq ptr %8, null
  br i1 %.not.i, label %af_property_get_face_globals.exit, label %9

9:                                                ; preds = %7
  %10 = getelementptr inbounds nuw i8, ptr %8, i64 216
  %11 = load ptr, ptr %10, align 8, !tbaa !240
  store ptr %11, ptr %5, align 8, !tbaa !492
  %.not13.i = icmp eq ptr %11, null
  br i1 %.not13.i, label %12, label %17

12:                                               ; preds = %9
  %13 = call fastcc i32 @af_face_globals_new(ptr noundef nonnull %8, ptr noundef %5, ptr noundef %0)
  %.not14.i = icmp eq i32 %13, 0
  br i1 %.not14.i, label %14, label %af_property_get_face_globals.exit

14:                                               ; preds = %12
  %15 = load ptr, ptr %5, align 8, !tbaa !492
  store ptr %15, ptr %10, align 8, !tbaa !240
  %16 = getelementptr inbounds nuw i8, ptr %8, i64 224
  store ptr @af_face_globals_free, ptr %16, align 8, !tbaa !242
  br label %17

af_property_get_face_globals.exit:                ; preds = %7, %12
  %.010.i = phi i32 [ 35, %7 ], [ %13, %12 ]
  call void @llvm.lifetime.end.p0(i64 8, ptr nonnull %5) #20
  br label %83

17:                                               ; preds = %14, %9
  %.066.ph = phi ptr [ %15, %14 ], [ %11, %9 ]
  call void @llvm.lifetime.end.p0(i64 8, ptr nonnull %5) #20
  %18 = getelementptr inbounds nuw i8, ptr %.066.ph, i64 16
  %19 = load ptr, ptr %18, align 8, !tbaa !182
  %20 = getelementptr inbounds nuw i8, ptr %2, i64 8
  store ptr %19, ptr %20, align 8, !tbaa !501
  br label %83

21:                                               ; preds = %3
  %22 = tail call i32 @strcmp(ptr noundef nonnull dereferenceable(1) %1, ptr noundef nonnull dereferenceable(16) @.str.181) #22
  %.not53 = icmp eq i32 %22, 0
  br i1 %.not53, label %23, label %31

23:                                               ; preds = %21
  %24 = getelementptr inbounds nuw i8, ptr %0, i64 24
  %25 = load i32, ptr %24, align 8, !tbaa !292
  %26 = zext i32 %25 to i64
  %27 = getelementptr inbounds nuw [88 x ptr], ptr @af_style_classes, i64 0, i64 %26
  %28 = load ptr, ptr %27, align 8, !tbaa !244
  %29 = getelementptr inbounds nuw i8, ptr %28, i64 8
  %30 = load i32, ptr %29, align 4, !tbaa !125
  store i32 %30, ptr %2, align 4, !tbaa !43
  br label %83

31:                                               ; preds = %21
  %32 = tail call i32 @strcmp(ptr noundef nonnull dereferenceable(1) %1, ptr noundef nonnull dereferenceable(15) @.str.182) #22
  %.not54 = icmp eq i32 %32, 0
  br i1 %.not54, label %33, label %36

33:                                               ; preds = %31
  %34 = getelementptr inbounds nuw i8, ptr %0, i64 28
  %35 = load i32, ptr %34, align 4, !tbaa !293
  store i32 %35, ptr %2, align 4, !tbaa !43
  br label %83

36:                                               ; preds = %31
  %37 = tail call i32 @strcmp(ptr noundef nonnull dereferenceable(1) %1, ptr noundef nonnull dereferenceable(18) @.str.183) #22
  %.not55 = icmp eq i32 %37, 0
  br i1 %.not55, label %38, label %52

38:                                               ; preds = %36
  %39 = load ptr, ptr %2, align 8, !tbaa !495
  call void @llvm.lifetime.start.p0(i64 8, ptr nonnull %4) #20
  %.not.i59 = icmp eq ptr %39, null
  br i1 %.not.i59, label %af_property_get_face_globals.exit63, label %40

40:                                               ; preds = %38
  %41 = getelementptr inbounds nuw i8, ptr %39, i64 216
  %42 = load ptr, ptr %41, align 8, !tbaa !240
  store ptr %42, ptr %4, align 8, !tbaa !492
  %.not13.i60 = icmp eq ptr %42, null
  br i1 %.not13.i60, label %43, label %48

43:                                               ; preds = %40
  %44 = call fastcc i32 @af_face_globals_new(ptr noundef nonnull %39, ptr noundef %4, ptr noundef %0)
  %.not14.i62 = icmp eq i32 %44, 0
  br i1 %.not14.i62, label %45, label %af_property_get_face_globals.exit63

45:                                               ; preds = %43
  %46 = load ptr, ptr %4, align 8, !tbaa !492
  store ptr %46, ptr %41, align 8, !tbaa !240
  %47 = getelementptr inbounds nuw i8, ptr %39, i64 224
  store ptr @af_face_globals_free, ptr %47, align 8, !tbaa !242
  br label %48

af_property_get_face_globals.exit63:              ; preds = %38, %43
  %.010.i61 = phi i32 [ 35, %38 ], [ %44, %43 ]
  call void @llvm.lifetime.end.p0(i64 8, ptr nonnull %4) #20
  br label %83

48:                                               ; preds = %45, %40
  %.065.ph = phi ptr [ %46, %45 ], [ %42, %40 ]
  call void @llvm.lifetime.end.p0(i64 8, ptr nonnull %4) #20
  %49 = getelementptr inbounds nuw i8, ptr %.065.ph, i64 40
  %50 = load i32, ptr %49, align 8, !tbaa !435
  %51 = getelementptr inbounds nuw i8, ptr %2, i64 8
  store i32 %50, ptr %51, align 8, !tbaa !497
  br label %83

52:                                               ; preds = %36
  %53 = tail call i32 @strcmp(ptr noundef nonnull dereferenceable(1) %1, ptr noundef nonnull dereferenceable(21) @.str.184) #22
  %.not57 = icmp eq i32 %53, 0
  br i1 %.not57, label %54, label %78

54:                                               ; preds = %52
  %55 = getelementptr inbounds nuw i8, ptr %0, i64 36
  %56 = load i32, ptr %55, align 4, !tbaa !43
  store i32 %56, ptr %2, align 4, !tbaa !43
  %57 = getelementptr inbounds nuw i8, ptr %0, i64 40
  %58 = load i32, ptr %57, align 4, !tbaa !43
  %59 = getelementptr inbounds nuw i8, ptr %2, i64 4
  store i32 %58, ptr %59, align 4, !tbaa !43
  %60 = getelementptr inbounds nuw i8, ptr %0, i64 44
  %61 = load i32, ptr %60, align 4, !tbaa !43
  %62 = getelementptr inbounds nuw i8, ptr %2, i64 8
  store i32 %61, ptr %62, align 4, !tbaa !43
  %63 = getelementptr inbounds nuw i8, ptr %0, i64 48
  %64 = load i32, ptr %63, align 4, !tbaa !43
  %65 = getelementptr inbounds nuw i8, ptr %2, i64 12
  store i32 %64, ptr %65, align 4, !tbaa !43
  %66 = getelementptr inbounds nuw i8, ptr %0, i64 52
  %67 = load i32, ptr %66, align 4, !tbaa !43
  %68 = getelementptr inbounds nuw i8, ptr %2, i64 16
  store i32 %67, ptr %68, align 4, !tbaa !43
  %69 = getelementptr inbounds nuw i8, ptr %0, i64 56
  %70 = load i32, ptr %69, align 4, !tbaa !43
  %71 = getelementptr inbounds nuw i8, ptr %2, i64 20
  store i32 %70, ptr %71, align 4, !tbaa !43
  %72 = getelementptr inbounds nuw i8, ptr %0, i64 60
  %73 = load i32, ptr %72, align 4, !tbaa !43
  %74 = getelementptr inbounds nuw i8, ptr %2, i64 24
  store i32 %73, ptr %74, align 4, !tbaa !43
  %75 = getelementptr inbounds nuw i8, ptr %0, i64 64
  %76 = load i32, ptr %75, align 4, !tbaa !43
  %77 = getelementptr inbounds nuw i8, ptr %2, i64 28
  store i32 %76, ptr %77, align 4, !tbaa !43
  br label %83

78:                                               ; preds = %52
  %79 = tail call i32 @strcmp(ptr noundef nonnull dereferenceable(1) %1, ptr noundef nonnull dereferenceable(18) @.str.185) #22
  %.not58 = icmp eq i32 %79, 0
  br i1 %.not58, label %80, label %83

80:                                               ; preds = %78
  %81 = getelementptr inbounds nuw i8, ptr %0, i64 32
  %82 = load i8, ptr %81, align 8, !tbaa !263
  store i8 %82, ptr %2, align 1, !tbaa !39
  br label %83

83:                                               ; preds = %48, %af_property_get_face_globals.exit63, %17, %af_property_get_face_globals.exit, %78, %80, %54, %33, %23
  %.0 = phi i32 [ 0, %80 ], [ 0, %54 ], [ 0, %33 ], [ 0, %23 ], [ 12, %78 ], [ 0, %17 ], [ %.010.i, %af_property_get_face_globals.exit ], [ 0, %48 ], [ %.010.i61, %af_property_get_face_globals.exit63 ]
  ret i32 %.0
}